target datalayout = "e-m:e-p270:32:32-p271:32:32-p272:64:64-i64:64-i128:128-f80:128-n8:16:32:64-S128"
target triple = "x86_64-pc-linux-gnu"

%struct.KBKDF = type { ptr, i32, ptr, i32, ptr, i64, ptr, i64, ptr, i64, ptr, i64, i32, i32, i32 }

@.str = private unnamed_addr constant [50 x i8] c"../openssl/providers/implementations/kdfs/kbkdf.c\00", align 1

; Function Attrs: nounwind uwtable
define internal void @init(ptr noundef %0) #0 {
  %2 = alloca ptr, align 8
  store ptr %0, ptr %2, align 8, !tbaa !3
  %3 = load ptr, ptr %2, align 8, !tbaa !3
  %4 = getelementptr inbounds nuw %struct.KBKDF, ptr %3, i32 0, i32 3
  store i32 32, ptr %4, align 8, !tbaa !23
  %5 = load ptr, ptr %2, align 8, !tbaa !3
  %6 = getelementptr inbounds nuw %struct.KBKDF, ptr %5, i32 0, i32 12
  store i32 1, ptr %6, align 8, !tbaa !24
  %7 = load ptr, ptr %2, align 8, !tbaa !3
  %8 = getelementptr inbounds nuw %struct.KBKDF, ptr %7, i32 0, i32 14
  store i32 1, ptr %8, align 8, !tbaa !25
  %9 = load ptr, ptr %2, align 8, !tbaa !3
  %10 = getelementptr inbounds nuw %struct.KBKDF, ptr %9, i32 0, i32 13
  store i32 0, ptr %10, align 4, !tbaa !26
  ret void
}

; Function Attrs: nounwind uwtable
define internal void @kbkdf_reset(ptr noundef %0) #0 {
  %2 = alloca ptr, align 8
  %3 = alloca ptr, align 8
  %4 = alloca ptr, align 8
  store ptr %0, ptr %2, align 8, !tbaa !3
  call void @llvm.lifetime.start.p0(i64 8, ptr %3) #6
  %5 = load ptr, ptr %2, align 8, !tbaa !3
  store ptr %5, ptr %3, align 8, !tbaa !3
  call void @llvm.lifetime.start.p0(i64 8, ptr %4) #6
  %6 = load ptr, ptr %3, align 8, !tbaa !3
  %7 = getelementptr inbounds nuw %struct.KBKDF, ptr %6, i32 0, i32 0
  %8 = load ptr, ptr %7, align 8, !tbaa !7
  store ptr %8, ptr %4, align 8, !tbaa !3
  %9 = load ptr, ptr %3, align 8, !tbaa !3
  %10 = getelementptr inbounds nuw %struct.KBKDF, ptr %9, i32 0, i32 2
  %11 = load ptr, ptr %10, align 8, !tbaa !13
  call void @EVP_MAC_CTX_free(ptr noundef %11)
  %12 = load ptr, ptr %3, align 8, !tbaa !3
  %13 = getelementptr inbounds nuw %struct.KBKDF, ptr %12, i32 0, i32 8
  %14 = load ptr, ptr %13, align 8, !tbaa !18
  %15 = load ptr, ptr %3, align 8, !tbaa !3
  %16 = getelementptr inbounds nuw %struct.KBKDF, ptr %15, i32 0, i32 9
  %17 = load i64, ptr %16, align 8, !tbaa !19
  call void @CRYPTO_clear_free(ptr noundef %14, i64 noundef %17, ptr noundef @.str, i32 noundef 147)
  %18 = load ptr, ptr %3, align 8, !tbaa !3
  %19 = getelementptr inbounds nuw %struct.KBKDF, ptr %18, i32 0, i32 6
  %20 = load ptr, ptr %19, align 8, !tbaa !16
  %21 = load ptr, ptr %3, align 8, !tbaa !3
  %22 = getelementptr inbounds nuw %struct.KBKDF, ptr %21, i32 0, i32 7
  %23 = load i64, ptr %22, align 8, !tbaa !17
  call void @CRYPTO_clear_free(ptr noundef %20, i64 noundef %23, ptr noundef @.str, i32 noundef 148)
  %24 = load ptr, ptr %3, align 8, !tbaa !3
  %25 = getelementptr inbounds nuw %struct.KBKDF, ptr %24, i32 0, i32 4
  %26 = load ptr, ptr %25, align 8, !tbaa !14
  %27 = load ptr, ptr %3, align 8, !tbaa !3
  %28 = getelementptr inbounds nuw %struct.KBKDF, ptr %27, i32 0, i32 5
  %29 = load i64, ptr %28, align 8, !tbaa !15
  call void @CRYPTO_clear_free(ptr noundef %26, i64 noundef %29, ptr noundef @.str, i32 noundef 149)
  %30 = load ptr, ptr %3, align 8, !tbaa !3
  %31 = getelementptr inbounds nuw %struct.KBKDF, ptr %30, i32 0, i32 10
  %32 = load ptr, ptr %31, align 8, !tbaa !20
  %33 = load ptr, ptr %3, align 8, !tbaa !3
  %34 = getelementptr inbounds nuw %struct.KBKDF, ptr %33, i32 0, i32 11
  %35 = load i64, ptr %34, align 8, !tbaa !21
  call void @CRYPTO_clear_free(ptr noundef %32, i64 noundef %35, ptr noundef @.str, i32 noundef 150)
  %36 = load ptr, ptr %3, align 8, !tbaa !3
  call void @llvm.memset.p0.i64(ptr align 8 %36, i8 0, i64 112, i1 false)
  %37 = load ptr, ptr %4, align 8, !tbaa !3
  %38 = load ptr, ptr %3, align 8, !tbaa !3
  %39 = getelementptr inbounds nuw %struct.KBKDF, ptr %38, i32 0, i32 0
  store ptr %37, ptr %39, align 8, !tbaa !7
  %40 = load ptr, ptr %3, align 8, !tbaa !3
  call void @init(ptr noundef %40)
  call void @llvm.lifetime.end.p0(i64 8, ptr %4) #6
  call void @llvm.lifetime.end.p0(i64 8, ptr %3) #6
  ret void
}

; Function Attrs: nounwind uwtable
define internal void @kbkdf_free(ptr noundef %0) #0 {
  %2 = alloca ptr, align 8
  %3 = alloca ptr, align 8
  store ptr %0, ptr %2, align 8, !tbaa !3
  call void @llvm.lifetime.start.p0(i64 8, ptr %3) #6
  %4 = load ptr, ptr %2, align 8, !tbaa !3
  store ptr %4, ptr %3, align 8, !tbaa !3
  %5 = load ptr, ptr %3, align 8, !tbaa !3
  %6 = icmp ne ptr %5, null
  br i1 %6, label %7, label %10

7:                                                ; preds = %1
  %8 = load ptr, ptr %3, align 8, !tbaa !3
  call void @kbkdf_reset(ptr noundef %8)
  %9 = load ptr, ptr %3, align 8, !tbaa !3
  call void @CRYPTO_free(ptr noundef %9, ptr noundef @.str, i32 noundef 137)
  br label %10

10:                                               ; preds = %7, %1
  call void @llvm.lifetime.end.p0(i64 8, ptr %3) #6
  ret void
}