; Function Attrs: nounwind uwtable
define internal void @kbkdf_free(ptr noundef %0) #0 {
  %.not = icmp eq ptr %0, null
  br i1 %.not, label %26, label %2

2:                                                ; preds = %1
  %3 = load ptr, ptr %0, align 8, !tbaa !3
  %4 = getelementptr inbounds nuw i8, ptr %0, i64 16
  %5 = load ptr, ptr %4, align 8, !tbaa !16
  tail call void @EVP_MAC_CTX_free(ptr noundef %5) #7
  %6 = getelementptr inbounds nuw i8, ptr %0, i64 64
  %7 = load ptr, ptr %6, align 8, !tbaa !21
  %8 = getelementptr inbounds nuw i8, ptr %0, i64 72
  %9 = load i64, ptr %8, align 8, !tbaa !22
  tail call void @CRYPTO_clear_free(ptr noundef %7, i64 noundef %9, ptr noundef nonnull @.str, i32 noundef 147) #7
  %10 = getelementptr inbounds nuw i8, ptr %0, i64 48
  %11 = load ptr, ptr %10, align 8, !tbaa !19
  %12 = getelementptr inbounds nuw i8, ptr %0, i64 56
  %13 = load i64, ptr %12, align 8, !tbaa !20
  tail call void @CRYPTO_clear_free(ptr noundef %11, i64 noundef %13, ptr noundef nonnull @.str, i32 noundef 148) #7
  %14 = getelementptr inbounds nuw i8, ptr %0, i64 32
  %15 = load ptr, ptr %14, align 8, !tbaa !17
  %16 = getelementptr inbounds nuw i8, ptr %0, i64 40
  %17 = load i64, ptr %16, align 8, !tbaa !18
  tail call void @CRYPTO_clear_free(ptr noundef %15, i64 noundef %17, ptr noundef nonnull @.str, i32 noundef 149) #7
  %18 = getelementptr inbounds nuw i8, ptr %0, i64 80
  %19 = load ptr, ptr %18, align 8, !tbaa !23
  %20 = getelementptr inbounds nuw i8, ptr %0, i64 88
  %21 = load i64, ptr %20, align 8, !tbaa !24
  tail call void @CRYPTO_clear_free(ptr noundef %19, i64 noundef %21, ptr noundef nonnull @.str, i32 noundef 150) #7
  %22 = getelementptr inbounds nuw i8, ptr %0, i64 8
  tail call void @llvm.memset.p0.i64(ptr noundef nonnull align 8 dereferenceable(112) %22, i8 0, i64 104, i1 false)
  store ptr %3, ptr %0, align 8, !tbaa !3
  %23 = getelementptr inbounds nuw i8, ptr %0, i64 24
  store i32 32, ptr %23, align 8, !tbaa !12
  %24 = getelementptr inbounds nuw i8, ptr %0, i64 96
  store i32 1, ptr %24, align 8, !tbaa !13
  %25 = getelementptr inbounds nuw i8, ptr %0, i64 104
  store i32 1, ptr %25, align 8, !tbaa !14
  tail call void @CRYPTO_free(ptr noundef nonnull %0, ptr noundef nonnull @.str, i32 noundef 137) #7
  br label %26

26:                                               ; preds = %2, %1
  ret void
}